; Function Attrs: nounwind uwtable
define void @Cba_NtkPrintDistribOld(ptr noundef captures(none) %0) local_unnamed_addr #1 {
  %2 = alloca [90 x i32], align 16
  call void @llvm.memset.p0.i64(ptr noundef nonnull align 16 dereferenceable(360) %2, i8 0, i64 360, i1 false)
  %3 = load ptr, ptr %0, align 8
  %4 = getelementptr i8, ptr %3, i64 1564
  %.val = load i32, ptr %4, align 4
  %5 = sext i32 %.val to i64
  %6 = tail call noalias ptr @calloc(i64 noundef %5, i64 noundef 4) #29
  %7 = getelementptr inbounds nuw i8, ptr %3, i64 112
  tail call void @Cba_ManCreatePrimMap(ptr noundef nonnull %7) #26
  %8 = getelementptr i8, ptr %0, i64 92
  %.val16.i = load i32, ptr %8, align 4
  %9 = icmp sgt i32 %.val16.i, 1
  br i1 %9, label %.lr.ph.i, label %Cba_NtkCollectDistrib.exit

.lr.ph.i:                                         ; preds = %1
  %10 = getelementptr i8, ptr %0, i64 96
  %11 = getelementptr i8, ptr %0, i64 188
  %12 = getelementptr inbounds nuw i8, ptr %0, i64 184
  %13 = getelementptr i8, ptr %0, i64 192
  br label %14

14:                                               ; preds = %37, %.lr.ph.i
  %.val.i.pre10 = phi i32 [ %.val16.i, %.lr.ph.i ], [ %.val.i.pre11, %37 ]
  %.val.i8 = phi i32 [ %.val16.i, %.lr.ph.i ], [ %.val.i, %37 ]
  %indvars.iv.i = phi i64 [ 1, %.lr.ph.i ], [ %indvars.iv.next.i, %37 ]
  %.val14.i = load ptr, ptr %10, align 8
  %15 = getelementptr inbounds nuw i8, ptr %.val14.i, i64 %indvars.iv.i
  %16 = load i8, ptr %15, align 1
  %17 = add i8 %16, -90
  %18 = icmp ult i8 %17, -87
  br i1 %18, label %37, label %19

19:                                               ; preds = %14
  %.not.i = icmp eq i8 %16, 3
  br i1 %.not.i, label %20, label %32

20:                                               ; preds = %19
  %.val5.i.i = load i32, ptr %11, align 4
  %21 = icmp slt i32 %.val5.i.i, 1
  br i1 %21, label %Cba_ObjNtkId.exit.i, label %22

22:                                               ; preds = %20
  %23 = trunc i64 %indvars.iv.i to i32
  %24 = add i32 %23, 1
  tail call fastcc void @Vec_IntFillExtra(ptr noundef nonnull %12, i32 noundef %24, i32 noundef 0)
  %.val.i.i.i.i = load ptr, ptr %13, align 8
  %25 = getelementptr inbounds nuw i32, ptr %.val.i.i.i.i, i64 %indvars.iv.i
  %26 = load i32, ptr %25, align 4
  %27 = sext i32 %26 to i64
  %.val.i.pre.pre = load i32, ptr %8, align 4
  br label %Cba_ObjNtkId.exit.i

Cba_ObjNtkId.exit.i:                              ; preds = %22, %20
  %.val.i.pre = phi i32 [ %.val.i.pre.pre, %22 ], [ %.val.i.pre10, %20 ]
  %28 = phi i64 [ %27, %22 ], [ 0, %20 ]
  %29 = getelementptr inbounds i32, ptr %6, i64 %28
  %30 = load i32, ptr %29, align 4
  %31 = add nsw i32 %30, 1
  store i32 %31, ptr %29, align 4
  br label %37

32:                                               ; preds = %19
  %33 = zext nneg i8 %16 to i64
  %34 = getelementptr inbounds nuw i32, ptr %2, i64 %33
  %35 = load i32, ptr %34, align 4
  %36 = add nsw i32 %35, 1
  store i32 %36, ptr %34, align 4
  br label %37

37:                                               ; preds = %32, %Cba_ObjNtkId.exit.i, %14
  %.val.i.pre11 = phi i32 [ %.val.i.pre10, %32 ], [ %.val.i.pre, %Cba_ObjNtkId.exit.i ], [ %.val.i.pre10, %14 ]
  %.val.i = phi i32 [ %.val.i8, %32 ], [ %.val.i.pre, %Cba_ObjNtkId.exit.i ], [ %.val.i8, %14 ]
  %indvars.iv.next.i = add nuw nsw i64 %indvars.iv.i, 1
  %38 = sext i32 %.val.i to i64
  %39 = icmp slt i64 %indvars.iv.next.i, %38
  br i1 %39, label %14, label %Cba_NtkCollectDistrib.exit, !llvm.loop !17

Cba_NtkCollectDistrib.exit:                       ; preds = %37, %1
  call void @Cba_NtkPrintDistribStat(ptr noundef nonnull %0, ptr noundef nonnull %2, ptr noundef %6)
  %.not = icmp eq ptr %6, null
  br i1 %.not, label %41, label %40

40:                                               ; preds = %Cba_NtkCollectDistrib.exit
  tail call void @free(ptr noundef nonnull %6) #26
  br label %41

41:                                               ; preds = %Cba_NtkCollectDistrib.exit, %40
  ret void
}